; Function Attrs: null_pointer_is_valid sspstrong uwtable
define internal i32 @dissect_camel_T_pDPTypeNumber(i1 noundef zeroext %0, ptr noundef %1, i32 noundef %2, ptr noundef %3, ptr noundef %4, i32 noundef %5) #0 {
  %7 = alloca ptr, align 8
  call void @llvm.lifetime.start.p0(i64 8, ptr nonnull %7) #12
  %8 = call i32 @dissect_ber_octet_string(i1 noundef zeroext %0, ptr noundef %3, ptr noundef %4, ptr noundef %1, i32 noundef %2, i32 noundef %5, ptr noundef nonnull %7)
  %9 = load ptr, ptr %7, align 8
  %.not = icmp eq ptr %9, null
  br i1 %.not, label %21, label %10

10:                                               ; preds = %6
  %11 = call zeroext i8 @tvb_get_uint8(ptr noundef nonnull %9, i32 noundef 0)
  store i8 %11, ptr @PDPTypeNumber, align 1
  %12 = getelementptr inbounds nuw i8, ptr %3, i64 24
  %13 = load ptr, ptr %12, align 8
  %14 = load i32, ptr @ett_camel_pdptypenumber, align 4
  %15 = call ptr @proto_item_add_subtree(ptr noundef %13, i32 noundef %14)
  %16 = load i8, ptr @PDPTypeOrganization, align 1
  switch i8 %16, label %21 [
    i8 0, label %.sink.split
    i8 1, label %17
  ]

17:                                               ; preds = %10
  br label %.sink.split

.sink.split:                                      ; preds = %10, %17
  %hf_camel_PDPTypeNumber_etsi.sink = phi ptr [ @hf_camel_PDPTypeNumber_ietf, %17 ], [ @hf_camel_PDPTypeNumber_etsi, %10 ]
  %18 = load i32, ptr %hf_camel_PDPTypeNumber_etsi.sink, align 4
  %19 = load ptr, ptr %7, align 8
  %20 = call ptr @proto_tree_add_item(ptr noundef %15, i32 noundef %18, ptr noundef %19, i32 noundef 0, i32 noundef 1, i32 noundef 0)
  br label %21

21:                                               ; preds = %.sink.split, %10, %6
  call void @llvm.lifetime.end.p0(i64 8, ptr nonnull %7) #12
  ret i32 %8
}